(lp0
S'Acrocephalus_arundinaceus'
p1
aS'Acrocephalus_palustris'
p2
aS'Acrocephalus_schoenobaenus'
p3
aS'Acrocephalus_scirpaceus'
p4
aS'Aegithalos_caudatus'
p5
aS'Alauda_arvensis'
p6
aS'Alcedo_atthis'
p7
aS'Anas_penelope'
p8
aS'Anas_platyrhynchos'
p9
aS'Anser_anser'
p10
aS'Anser_fabalis'
p11
aS'Anthus_spinoletta'
p12
aS'Anthus_trivialis'
p13
aS'Apus_apus'
p14
aS'Ardea_alba'
p15
aS'Ardea_cinerea'
p16
aS'Botaurus_stellaris'
p17
aS'Branta_canadensis'
p18
aS'Buteo_buteo'
p19
aS'Carduelis_carduelis'
p20
aS'Carduelis_citrinella'
p21
aS'Certhia_brachydactyla'
p22
aS'Certhia_familiaris'
p23
aS'Chloris_chloris'
p24
aS'Chroicocephalus_ridibundus'
p25
aS'Ciconia_ciconia'
p26
aS'Columba_livia'
p27
aS'Corvus_corax'
p28
aS'Corvus_corone'
p29
aS'Corvus_frugilegus'
p30
aS'Coturnix_coturnix'
p31
aS'Crex_crex'
p32
aS'Cuculus_canorus'
p33
aS'Cyanistes_caeruleus'
p34
aS'Cygnus_columbianus'
p35
aS'Cygnus_cygnus'
p36
aS'Cygnus_olor'
p37
aS'Delichon_urbicum'
p38
aS'Dendrocopos_major'
p39
aS'Dendrocopos_minor'
p40
aS'Dryocopus_martius'
p41
aS'Anser_albifrons'
p42
aS'Bubo_bubo'
p43
aS'Coccothraustes_coccothraustes'
p44
aS'Emberiza_cirlus'
p45
aS'Haematopus_ostralegus'
p46
aS'Lophophanes_cristatus'
p47
aS'Oenanthe_oenanthe'
p48
aS'Phylloscopus_sibilatrix'
p49
aS'Regulus_regulus'
p50
aS'Sylvia_communis'
p51
aS'Emberiza_citrinella'
p52
aS'Emberiza_schoeniclus'
p53
aS'Erithacus_rubecula'
p54
aS'Ficedula_hypoleuca'
p55
aS'Fringilla_coelebs'
p56
aS'Fulica_atra'
p57
aS'Galerida_cristata'
p58
aS'Gallinula_chloropus'
p59
aS'Garrulus_glandarius'
p60
aS'Grus_grus'
p61
aS'Hirundo_rustica'
p62
aS'Ixobrychus_minutus'
p63
aS'Jynx_torquilla'
p64
aS'Lanius_collurio'
p65
aS'Lanius_excubitor'
p66
aS'Larus_argentatus'
p67
aS'Larus_canus'
p68
aS'Limosa_limosa'
p69
aS'Loxia_curvirostra'
p70
aS'Lullula_arborea'
p71
aS'Luscinia_luscinia'
p72
aS'Luscinia_megarhynchos'
p73
aS'Luscinia_svecica'
p74
aS'Lyrurus_tetrix'
p75
aS'Merops_apiaster'
p76
aS'Morus_bassanus'
p77
aS'Motacilla_alba'
p78
aS'Motacilla_cinerea'
p79
aS'Motacilla_flava'
p80
aS'Muscicapa_striata'
p81
aS'Nucifraga_caryocatactes'
p82
aS'Numenius_arquata'
p83
aS'Nycticorax_nycticorax'
p84
aS'Oriolus_oriolus'
p85
aS'Otus_scops'
p86
aS'Panurus_biarmicus'
p87
aS'Parus_major'
p88
aS'Passer_domesticus'
p89
aS'Passer_montanus'
p90
aS'Perdix_perdix'
p91
aS'Periparus_ater'
p92
aS'Phalacrocorax_carbo'
p93
aS'Phasianus_colchicus'
p94
aS'Phoenicurus_ochruros'
p95
aS'Phoenicurus_phoenicurus'
p96
aS'Phylloscopus_bonelli'
p97
aS'Phylloscopus_collybita'
p98
aS'Phylloscopus_trochilus'
p99
aS'Pica_pica'
p100
aS'Picus_canus'
p101
aS'Picus_viridis'
p102
aS'Pluvialis_squatarola'
p103
aS'Podiceps_cristatus'
p104
aS'Podiceps_grisegena'
p105
aS'Poecile_montanus'
p106
aS'Poecile_palustris'
p107
aS'Porzana_parva'
p108
aS'Prunella_collaris'
p109
aS'Prunella_modularis'
p110
aS'Pyrrhocorax_graculus'
p111
aS'Pyrrhula_pyrrhula'
p112
aS'Rallus_aquaticus'
p113
aS'Regulus_ignicapilla'
p114
aS'Remiz_pendulinus'
p115
aS'Riparia_riparia'
p116
aS'Rissa_tridactyla'
p117
aS'Saxicola_rubetra'
p118
aS'Saxicola_rubicola'
p119
aS'Serinus_canaria'
p120
aS'Serinus_serinus'
p121
aS'Sitta_europaea'
p122
aS'Somateria_mollissima'
p123
aS'Sterna_hirundo'
p124
aS'Streptopelia_turtur'
p125
aS'Sturnus_vulgaris'
p126
aS'Sylvia_atricapilla'
p127
aS'Sylvia_borin'
p128
aS'Sylvia_conspicillata'
p129
aS'Sylvia_curruca'
p130
aS'Sylvia_nisoria'
p131
aS'Tachybaptus_ruficollis'
p132
aS'Tadorna_ferruginea'
p133
aS'Tadorna_tadorna'
p134
aS'Tetrao_urogallus'
p135
aS'Tetrastes_bonasia'
p136
aS'Tringa_glareola'
p137
aS'Troglodytes_troglodytes'
p138
aS'Turdus_iliacus'
p139
aS'Turdus_merula'
p140
aS'Turdus_philomelos'
p141
aS'Turdus_pilaris'
p142
aS'Turdus_torquatus'
p143
aS'Turdus_viscivorus'
p144
aS'Vanellus_vanellus'
p145
a.