(lp0
S'Morus_bassanus'
p1
aS'Tadorna_tadorna'
p2
aS'Emberiza_hortulana'
p3
aS'Sylvia_conspicillata'
p4
aS'Oriolus_oriolus'
p5
aS'Passer_domesticus'
p6
aS'Turdus_philomelos'
p7
aS'Turdus_viscivorus'
p8
aS'Ardea_alba'
p9
aS'Nucifraga_caryocatactes'
p10
aS'Phylloscopus_bonelli'
p11
aS'Ficedula_parva'
p12
aS'Anas_platyrhynchos'
p13
aS'Aquila_chrysaetos'
p14
aS'Hirundo_rustica'
p15
aS'Phoenicurus_ochruros'
p16
aS'Falco_tinnunculus'
p17
aS'Actitis_hypoleucos'
p18
aS'Motacilla_alba'
p19
aS'Gallinula_chloropus'
p20
aS'Corvus_corone'
p21
aS'Alauda_arvensis'
p22
aS'Himantopus_himantopus'
p23
aS'Lanius_collurio'
p24
aS'Poecile_montanus'
p25
aS'Ardea_cinerea'
p26
aS'Muscicapa_striata'
p27
aS'Anser_albifrons'
p28
aS'Sturnus_vulgaris'
p29
aS'Phalacrocorax_carbo'
p30
aS'Milvus_milvus'
p31
aS'Cygnus_columbianus'
p32
aS'Acrocephalus_scirpaceus'
p33
aS'Cyanistes_caeruleus'
p34
aS'Asio_otus'
p35
aS'Branta_canadensis'
p36
aS'Emberiza_schoeniclus'
p37
aS'Sitta_europaea'
p38
aS'Lophophanes_cristatus'
p39
aS'Acrocephalus_melanopogon'
p40
aS'Athene_noctua'
p41
aS'Botaurus_stellaris'
p42
aS'Strix_aluco'
p43
aS'Tringa_glareola'
p44
aS'Sylvia_nisoria'
p45
aS'Lyrurus_tetrix'
p46
aS'Phoenicurus_phoenicurus'
p47
aS'Cinclus_cinclus'
p48
aS'Turdus_merula'
p49
aS'Psittacula_krameri'
p50
aS'Chlidonias_niger'
p51
aS'Fringilla_coelebs'
p52
aS'Aythya_ferina'
p53
aS'Cygnus_atratus'
p54
aS'Noise_noise'
p55
aS'Prunella_modularis'
p56
aS'Sylvia_atricapilla'
p57
aS'Aegithalos_caudatus'
p58
aS'Tadorna_ferruginea'
p59
aS'Charadrius_morinellus'
p60
aS'Upupa_epops'
p61
aS'Pyrrhocorax_graculus'
p62
aS'Hippolais_icterina'
p63
aS'Regulus_regulus'
p64
aS'Rallus_aquaticus'
p65
aS'Luscinia_megarhynchos'
p66
aS'Jynx_torquilla'
p67
aS'Coturnix_coturnix'
p68
aS'Dryocopus_martius'
p69
aS'Acrocephalus_arundinaceus'
p70
aS'Bubo_bubo'
p71
aS'Larus_canus'
p72
aS'Locustella_luscinioides'
p73
aS'Chloris_chloris'
p74
aS'Haematopus_ostralegus'
p75
aS'Turdus_torquatus'
p76
aS'Anthus_trivialis'
p77
aS'Turdus_pilaris'
p78
aS'Saxicola_rubetra'
p79
aS'Perdix_perdix'
p80
aS'Apus_apus'
p81
aS'Certhia_brachydactyla'
p82
aS'Porzana_parva'
p83
aS'Cygnus_olor'
p84
aS'Somateria_mollissima'
p85
aS'Crex_crex'
p86
aS'Columba_livia'
p87
aS'Aix_galericulata'
p88
aS'Anthus_spinoletta'
p89
aS'Locustella_fluviatilis'
p90
aS'Erithacus_rubecula'
p91
aS'Carduelis_citrinella'
p92
aS'Rhea_americana'
p93
aS'Anas_querquedula'
p94
aS'Dendrocopos_minor'
p95
aS'Falco_subbuteo'
p96
aS'Phylloscopus_sibilatrix'
p97
aS'Cuculus_canorus'
p98
aS'Dendrocopos_syriacus'
p99
aS'Panurus_biarmicus'
p100
aS'Corvus_frugilegus'
p101
aS'Serinus_canaria'
p102
aS'Pluvialis_squatarola'
p103
aS'Acrocephalus_schoenobaenus'
p104
aS'Regulus_ignicapilla'
p105
aS'Phasianus_colchicus'
p106
aS'Periparus_ater'
p107
aS'Numenius_arquata'
p108
aS'Ciconia_ciconia'
p109
aS'Sylvia_communis'
p110
aS'Otus_scops'
p111
aS'Emberiza_cirlus'
p112
aS'Oenanthe_oenanthe'
p113
aS'Rissa_tridactyla'
p114
aS'Cygnus_cygnus'
p115
aS'Carduelis_carduelis'
p116
aS'Charadrius_dubius'
p117
aS'Nymphicus_hollandicus'
p118
aS'Delichon_urbicum'
p119
aS'Phylloscopus_trochilus'
p120
aS'Lanius_excubitor'
p121
aS'Anthus_pratensis'
p122
aS'Ficedula_hypoleuca'
p123
aS'Galerida_cristata'
p124
aS'Troglodytes_troglodytes'
p125
aS'Podiceps_cristatus'
p126
aS'Serinus_serinus'
p127
aS'Emberiza_citrinella'
p128
aS'Prunella_collaris'
p129
aS'Cisticola_juncidis'
p130
aS'Pica_pica'
p131
aS'Locustella_naevia'
p132
aS'Poecile_palustris'
p133
aS'Anthus_cervinus'
p134
aS'Passer_montanus'
p135
aS'Certhia_familiaris'
p136
aS'Burhinus_oedicnemus'
p137
aS'Nycticorax_nycticorax'
p138
aS'Sylvia_curruca'
p139
aS'Vanellus_vanellus'
p140
aS'Calandrella_brachydactyla'
p141
aS'Ixobrychus_minutus'
p142
aS'Tetrao_urogallus'
p143
aS'Phylloscopus_collybita'
p144
aS'Gallinago_gallinago'
p145
aS'Branta_bernicla'
p146
aS'Anas_penelope'
p147
aS'Remiz_pendulinus'
p148
aS'Lagopus_muta'
p149
aS'Pyrrhula_pyrrhula'
p150
aS'Milvus_migrans'
p151
aS'Pernis_apivorus'
p152
aS'Alcedo_atthis'
p153
aS'Motacilla_cinerea'
p154
aS'Loxia_curvirostra'
p155
aS'Acrocephalus_palustris'
p156
aS'Tetrastes_bonasia'
p157
aS'Motacilla_flava'
p158
aS'Branta_leucopsis'
p159
aS'Aegolius_funereus'
p160
aS'Limosa_limosa'
p161
aS'Parus_major'
p162
aS'Coccothraustes_coccothraustes'
p163
aS'Chroicocephalus_ridibundus'
p164
aS'Hydroprogne_caspia'
p165
aS'Accipiter_gentilis'
p166
aS'Corvus_corax'
p167
aS'Picus_canus'
p168
aS'Buteo_buteo'
p169
aS'Merops_apiaster'
p170
aS'Larus_argentatus'
p171
aS'Riparia_riparia'
p172
aS'Grus_grus'
p173
aS'Luscinia_luscinia'
p174
aS'Ficedula_albicollis'
p175
aS'Dendrocopos_major'
p176
aS'Anser_anser'
p177
aS'Sterna_hirundo'
p178
aS'Podiceps_grisegena'
p179
aS'Tachybaptus_ruficollis'
p180
aS'Saxicola_rubicola'
p181
aS'Fulica_atra'
p182
aS'Streptopelia_turtur'
p183
aS'Luscinia_svecica'
p184
aS'Haliaeetus_albicilla'
p185
aS'Lullula_arborea'
p186
aS'Anser_fabalis'
p187
aS'Emberiza_calandra'
p188
aS'Picus_viridis'
p189
aS'Turdus_iliacus'
p190
aS'Strix_uralensis'
p191
aS'Alopochen_aegyptiaca'
p192
aS'Sylvia_borin'
p193
aS'Circus_aeruginosus'
p194
aS'Garrulus_glandarius'
p195
a.